; Function Attrs: mustprogress uwtable
define void @_ZN9grpc_core5Party18MakeNonOwningWakerEv(ptr noalias nocapture writeonly sret(%"class.grpc_core::Waker") align 8 %agg.result, ptr noundef nonnull align 8 dereferenceable(168) %this) unnamed_addr #5 align 2 personality ptr @__gxx_personality_v0 {
entry:
  %participants_ = getelementptr inbounds i8, ptr %this, i64 40
  %currently_polling_ = getelementptr inbounds i8, ptr %this, i64 32
  %0 = load i8, ptr %currently_polling_, align 8
  %idxprom = zext i8 %0 to i64
  %arrayidx = getelementptr inbounds [16 x %"struct.std::atomic.2"], ptr %participants_, i64 0, i64 %idxprom
  %1 = load atomic i64, ptr %arrayidx monotonic, align 8
  %atomic-temp.i.0.i = inttoptr i64 %1 to ptr
  %handle_.i = getelementptr inbounds i8, ptr %atomic-temp.i.0.i, i64 8
  %2 = load ptr, ptr %handle_.i, align 8
  %cmp.i = icmp eq ptr %2, null
  br i1 %cmp.i, label %invoke.cont.i, label %if.end.i

invoke.cont.i:                                    ; preds = %entry
  %call.i = tail call noalias noundef nonnull dereferenceable(32) ptr @_Znwm(i64 noundef 32) #24
  store ptr getelementptr inbounds ({ [6 x ptr] }, ptr @_ZTVN9grpc_core5Party6HandleE, i64 0, i32 0, i64 2), ptr %call.i, align 8
  %refs_.i.i = getelementptr inbounds i8, ptr %call.i, i64 8
  store i64 2, ptr %refs_.i.i, align 8
  %mu_.i.i = getelementptr inbounds i8, ptr %call.i, i64 16
  store i64 0, ptr %mu_.i.i, align 8
  %party_.i.i = getelementptr inbounds i8, ptr %call.i, i64 24
  store ptr %this, ptr %party_.i.i, align 8
  store ptr %call.i, ptr %handle_.i, align 8
  br label %_ZN9grpc_core5Party11Participant21MakeNonOwningWakeableEPS0_.exit

if.end.i:                                         ; preds = %entry
  %refs_.i1.i = getelementptr inbounds i8, ptr %2, i64 8
  %3 = atomicrmw add ptr %refs_.i1.i, i64 1 monotonic, align 8
  %4 = load ptr, ptr %handle_.i, align 8
  br label %_ZN9grpc_core5Party11Participant21MakeNonOwningWakeableEPS0_.exit

_ZN9grpc_core5Party11Participant21MakeNonOwningWakeableEPS0_.exit: ; preds = %invoke.cont.i, %if.end.i
  %retval.0.i = phi ptr [ %call.i, %invoke.cont.i ], [ %4, %if.end.i ]
  %5 = load i8, ptr %currently_polling_, align 8
  %conv = zext nneg i8 %5 to i32
  %shl = shl nuw i32 1, %conv
  %conv4 = trunc i32 %shl to i16
  store ptr %retval.0.i, ptr %agg.result, align 8
  %wakeup_mask3.i = getelementptr inbounds i8, ptr %agg.result, i64 8
  store i16 %conv4, ptr %wakeup_mask3.i, align 8
  ret void
}